target datalayout = "e-m:e-p270:32:32-p271:32:32-p272:64:64-i64:64-i128:128-f80:128-n8:16:32:64-S128"
target triple = "x86_64-pc-linux-gnu"

%union.av_intfloat32 = type { i32 }

; Function Attrs: nounwind uwtable
define internal void @sbr_qmf_pre_shuffle_c(ptr noundef %0) #1 {
  %2 = alloca ptr, align 8
  %3 = alloca ptr, align 8
  %4 = alloca i32, align 4
  store ptr %0, ptr %2, align 8, !tbaa !21
  call void @llvm.lifetime.start.p0(i64 8, ptr %3) #5
  %5 = load ptr, ptr %2, align 8, !tbaa !21
  store ptr %5, ptr %3, align 8, !tbaa !30
  call void @llvm.lifetime.start.p0(i64 4, ptr %4) #5
  %6 = load ptr, ptr %3, align 8, !tbaa !30
  %7 = getelementptr inbounds %union.av_intfloat32, ptr %6, i64 0
  %8 = load i32, ptr %7, align 4, !tbaa !32
  %9 = load ptr, ptr %3, align 8, !tbaa !30
  %10 = getelementptr inbounds %union.av_intfloat32, ptr %9, i64 64
  store i32 %8, ptr %10, align 4, !tbaa !32
  %11 = load ptr, ptr %3, align 8, !tbaa !30
  %12 = getelementptr inbounds %union.av_intfloat32, ptr %11, i64 1
  %13 = load i32, ptr %12, align 4, !tbaa !32
  %14 = load ptr, ptr %3, align 8, !tbaa !30
  %15 = getelementptr inbounds %union.av_intfloat32, ptr %14, i64 65
  store i32 %13, ptr %15, align 4, !tbaa !32
  store i32 1, ptr %4, align 4, !tbaa !23
  br label %16

16:                                               ; preds = %74, %1
  %17 = load i32, ptr %4, align 4, !tbaa !23
  %18 = icmp slt i32 %17, 31
  br i1 %18, label %19, label %77

19:                                               ; preds = %16
  %20 = load ptr, ptr %3, align 8, !tbaa !30
  %21 = load i32, ptr %4, align 4, !tbaa !23
  %22 = sub nsw i32 64, %21
  %23 = sext i32 %22 to i64
  %24 = getelementptr inbounds %union.av_intfloat32, ptr %20, i64 %23
  %25 = load i32, ptr %24, align 4, !tbaa !32
  %26 = xor i32 %25, -2147483648
  %27 = load ptr, ptr %3, align 8, !tbaa !30
  %28 = load i32, ptr %4, align 4, !tbaa !23
  %29 = mul nsw i32 2, %28
  %30 = add nsw i32 64, %29
  %31 = add nsw i32 %30, 0
  %32 = sext i32 %31 to i64
  %33 = getelementptr inbounds %union.av_intfloat32, ptr %27, i64 %32
  store i32 %26, ptr %33, align 4, !tbaa !32
  %34 = load ptr, ptr %3, align 8, !tbaa !30
  %35 = load i32, ptr %4, align 4, !tbaa !23
  %36 = add nsw i32 %35, 1
  %37 = sext i32 %36 to i64
  %38 = getelementptr inbounds %union.av_intfloat32, ptr %34, i64 %37
  %39 = load i32, ptr %38, align 4, !tbaa !32
  %40 = load ptr, ptr %3, align 8, !tbaa !30
  %41 = load i32, ptr %4, align 4, !tbaa !23
  %42 = mul nsw i32 2, %41
  %43 = add nsw i32 64, %42
  %44 = add nsw i32 %43, 1
  %45 = sext i32 %44 to i64
  %46 = getelementptr inbounds %union.av_intfloat32, ptr %40, i64 %45
  store i32 %39, ptr %46, align 4, !tbaa !32
  %47 = load ptr, ptr %3, align 8, !tbaa !30
  %48 = load i32, ptr %4, align 4, !tbaa !23
  %49 = sub nsw i32 63, %48
  %50 = sext i32 %49 to i64
  %51 = getelementptr inbounds %union.av_intfloat32, ptr %47, i64 %50
  %52 = load i32, ptr %51, align 4, !tbaa !32
  %53 = xor i32 %52, -2147483648
  %54 = load ptr, ptr %3, align 8, !tbaa !30
  %55 = load i32, ptr %4, align 4, !tbaa !23
  %56 = mul nsw i32 2, %55
  %57 = add nsw i32 64, %56
  %58 = add nsw i32 %57, 2
  %59 = sext i32 %58 to i64
  %60 = getelementptr inbounds %union.av_intfloat32, ptr %54, i64 %59
  store i32 %53, ptr %60, align 4, !tbaa !32
  %61 = load ptr, ptr %3, align 8, !tbaa !30
  %62 = load i32, ptr %4, align 4, !tbaa !23
  %63 = add nsw i32 %62, 2
  %64 = sext i32 %63 to i64
  %65 = getelementptr inbounds %union.av_intfloat32, ptr %61, i64 %64
  %66 = load i32, ptr %65, align 4, !tbaa !32
  %67 = load ptr, ptr %3, align 8, !tbaa !30
  %68 = load i32, ptr %4, align 4, !tbaa !23
  %69 = mul nsw i32 2, %68
  %70 = add nsw i32 64, %69
  %71 = add nsw i32 %70, 3
  %72 = sext i32 %71 to i64
  %73 = getelementptr inbounds %union.av_intfloat32, ptr %67, i64 %72
  store i32 %66, ptr %73, align 4, !tbaa !32
  br label %74

74:                                               ; preds = %19
  %75 = load i32, ptr %4, align 4, !tbaa !23
  %76 = add nsw i32 %75, 2
  store i32 %76, ptr %4, align 4, !tbaa !23
  br label %16, !llvm.loop !34

77:                                               ; preds = %16
  %78 = load ptr, ptr %3, align 8, !tbaa !30
  %79 = getelementptr inbounds %union.av_intfloat32, ptr %78, i64 33
  %80 = load i32, ptr %79, align 4, !tbaa !32
  %81 = xor i32 %80, -2147483648
  %82 = load ptr, ptr %3, align 8, !tbaa !30
  %83 = getelementptr inbounds %union.av_intfloat32, ptr %82, i64 126
  store i32 %81, ptr %83, align 4, !tbaa !32
  %84 = load ptr, ptr %3, align 8, !tbaa !30
  %85 = getelementptr inbounds %union.av_intfloat32, ptr %84, i64 32
  %86 = load i32, ptr %85, align 4, !tbaa !32
  %87 = load ptr, ptr %3, align 8, !tbaa !30
  %88 = getelementptr inbounds %union.av_intfloat32, ptr %87, i64 127
  store i32 %86, ptr %88, align 4, !tbaa !32
  call void @llvm.lifetime.end.p0(i64 4, ptr %4) #5
  call void @llvm.lifetime.end.p0(i64 8, ptr %3) #5
  ret void
}