; Function Attrs: nofree norecurse nosync nounwind memory(argmem: readwrite) uwtable
define internal void @sbr_qmf_pre_shuffle_c(ptr noundef captures(none) initializes((256, 264)) %0) #1 {
  %2 = load i32, ptr %0, align 4, !tbaa !24
  %3 = getelementptr inbounds nuw i8, ptr %0, i64 256
  store i32 %2, ptr %3, align 4, !tbaa !24
  %4 = getelementptr inbounds nuw i8, ptr %0, i64 4
  %5 = load i32, ptr %4, align 4, !tbaa !24
  %6 = getelementptr inbounds nuw i8, ptr %0, i64 260
  store i32 %5, ptr %6, align 4, !tbaa !24
  br label %7

7:                                                ; preds = %1, %7
  %indvars.iv = phi i64 [ 1, %1 ], [ %indvars.iv.next, %7 ]
  %8 = sub nuw nsw i64 64, %indvars.iv
  %9 = getelementptr inbounds nuw %union.av_intfloat32, ptr %0, i64 %8
  %10 = load i32, ptr %9, align 4, !tbaa !24
  %11 = xor i32 %10, -2147483648
  %12 = shl nuw nsw i64 %indvars.iv, 1
  %gep = getelementptr inbounds nuw %union.av_intfloat32, ptr %3, i64 %12
  store i32 %11, ptr %gep, align 4, !tbaa !24
  %gep27 = getelementptr inbounds nuw %union.av_intfloat32, ptr %4, i64 %indvars.iv
  %13 = load i32, ptr %gep27, align 4, !tbaa !24
  %14 = getelementptr inbounds nuw %union.av_intfloat32, ptr %0, i64 %12
  %15 = getelementptr inbounds nuw i8, ptr %14, i64 260
  store i32 %13, ptr %15, align 4, !tbaa !24
  %16 = sub nuw nsw i64 63, %indvars.iv
  %17 = getelementptr inbounds nuw %union.av_intfloat32, ptr %0, i64 %16
  %18 = load i32, ptr %17, align 4, !tbaa !24
  %19 = xor i32 %18, -2147483648
  %20 = getelementptr inbounds nuw i8, ptr %14, i64 264
  store i32 %19, ptr %20, align 4, !tbaa !24
  %indvars.iv.next = add nuw nsw i64 %indvars.iv, 2
  %21 = getelementptr inbounds nuw %union.av_intfloat32, ptr %0, i64 %indvars.iv.next
  %22 = load i32, ptr %21, align 4, !tbaa !24
  %23 = getelementptr inbounds nuw i8, ptr %14, i64 268
  store i32 %22, ptr %23, align 4, !tbaa !24
  %24 = icmp samesign ult i64 %indvars.iv, 29
  br i1 %24, label %7, label %25, !llvm.loop !26

25:                                               ; preds = %7
  %26 = getelementptr inbounds nuw i8, ptr %0, i64 132
  %27 = load i32, ptr %26, align 4, !tbaa !24
  %28 = xor i32 %27, -2147483648
  %29 = getelementptr inbounds nuw i8, ptr %0, i64 504
  store i32 %28, ptr %29, align 4, !tbaa !24
  %30 = getelementptr inbounds nuw i8, ptr %0, i64 128
  %31 = load i32, ptr %30, align 4, !tbaa !24
  %32 = getelementptr inbounds nuw i8, ptr %0, i64 508
  store i32 %31, ptr %32, align 4, !tbaa !24
  ret void
}